; Function Attrs: mustprogress nofree norecurse nosync nounwind willreturn memory(argmem: write) uwtable
define dso_local void @_ZN11btShapeHullC2EPK13btConvexShape(ptr noundef nonnull writeonly align 8 captures(none) dereferenceable(80) initializes((4, 12), (16, 25), (36, 44), (48, 57), (64, 68), (72, 80)) %0, ptr noundef %1) unnamed_addr #0 align 2 personality ptr @__gxx_personality_v0 {
  %3 = getelementptr inbounds nuw i8, ptr %0, i64 24
  %4 = getelementptr inbounds nuw i8, ptr %0, i64 16
  %5 = getelementptr inbounds nuw i8, ptr %0, i64 4
  %6 = getelementptr inbounds nuw i8, ptr %0, i64 8
  %7 = getelementptr inbounds nuw i8, ptr %0, i64 56
  %8 = getelementptr inbounds nuw i8, ptr %0, i64 48
  %9 = getelementptr inbounds nuw i8, ptr %0, i64 36
  %10 = getelementptr inbounds nuw i8, ptr %0, i64 40
  %11 = getelementptr inbounds nuw i8, ptr %0, i64 72
  store ptr %1, ptr %11, align 8, !tbaa !4
  store i8 1, ptr %3, align 8, !tbaa !18
  store ptr null, ptr %4, align 8, !tbaa !19
  store i32 0, ptr %5, align 4, !tbaa !20
  store i32 0, ptr %6, align 8, !tbaa !21
  store i8 1, ptr %7, align 8, !tbaa !22
  store ptr null, ptr %8, align 8, !tbaa !23
  store i32 0, ptr %9, align 4, !tbaa !24
  store i32 0, ptr %10, align 8, !tbaa !25
  %12 = getelementptr inbounds nuw i8, ptr %0, i64 64
  store i32 0, ptr %12, align 8, !tbaa !26
  ret void
}